; Function Attrs: nounwind uwtable
define noalias noundef ptr @compute_apsp(ptr noundef %0, i32 noundef %1) local_unnamed_addr #2 {
  %3 = getelementptr inbounds nuw i8, ptr %0, i64 16
  %4 = load ptr, ptr %3, align 8, !tbaa !18
  %.not = icmp eq ptr %4, null
  br i1 %.not, label %7, label %5

5:                                                ; preds = %2
  %6 = tail call fastcc ptr @compute_apsp_dijkstra(ptr noundef nonnull %0, i32 noundef %1)
  br label %compute_apsp_simple.exit

7:                                                ; preds = %2
  %8 = mul nsw i32 %1, %1
  %9 = zext nneg i32 %8 to i64
  %.not.i.i = icmp eq i32 %1, 0
  br i1 %.not.i.i, label %.preheader.thread.i, label %10

10:                                               ; preds = %7
  %11 = tail call noalias ptr @calloc(i64 noundef %9, i64 noundef 4) #17
  %12 = icmp eq ptr %11, null
  br i1 %12, label %13, label %17

13:                                               ; preds = %10
  %14 = load ptr, ptr @stderr, align 8, !tbaa !19
  %15 = shl nuw nsw i64 %9, 2
  %16 = tail call i32 (ptr, ptr, ...) @fprintf(ptr noundef %14, ptr noundef nonnull @.str.1, i64 noundef %15) #18
  tail call fastcc void @graphviz_exit() #19
  unreachable

17:                                               ; preds = %10
  %18 = sext i32 %1 to i64
  %mul.ov.i23.i = icmp slt i32 %1, 0
  br i1 %mul.ov.i23.i, label %19, label %22

19:                                               ; preds = %17
  %20 = load ptr, ptr @stderr, align 8, !tbaa !19
  %21 = tail call i32 (ptr, ptr, ...) @fprintf(ptr noundef %20, ptr noundef nonnull @.str, i64 noundef %18, i64 noundef 8) #18
  tail call fastcc void @graphviz_exit() #19
  unreachable

22:                                               ; preds = %17
  %23 = tail call noalias ptr @calloc(i64 noundef %18, i64 noundef 8) #17
  %24 = icmp eq ptr %23, null
  br i1 %24, label %25, label %.lr.ph.preheader.i

25:                                               ; preds = %22
  %26 = load ptr, ptr @stderr, align 8, !tbaa !19
  %27 = shl nuw nsw i64 %18, 3
  %28 = tail call i32 (ptr, ptr, ...) @fprintf(ptr noundef %26, ptr noundef nonnull @.str.1, i64 noundef %27) #18
  tail call fastcc void @graphviz_exit() #19
  unreachable

.preheader.thread.i:                              ; preds = %7
  %29 = tail call noalias ptr @calloc(i64 noundef 0, i64 noundef 8) #17
  br label %compute_apsp_simple.exit

.lr.ph.preheader.i:                               ; preds = %22
  %30 = zext nneg i32 %1 to i64
  br label %.lr.ph.i

.lr.ph.i:                                         ; preds = %.lr.ph.i, %.lr.ph.preheader.i
  %indvars.iv.i = phi i64 [ 0, %.lr.ph.preheader.i ], [ %indvars.iv.next.i, %.lr.ph.i ]
  %31 = mul nuw nsw i64 %indvars.iv.i, %30
  %32 = getelementptr inbounds nuw i32, ptr %11, i64 %31
  %33 = getelementptr inbounds nuw ptr, ptr %23, i64 %indvars.iv.i
  store ptr %32, ptr %33, align 8, !tbaa !21
  %indvars.iv.next.i = add nuw nsw i64 %indvars.iv.i, 1
  %exitcond.not.i = icmp eq i64 %indvars.iv.next.i, %30
  br i1 %exitcond.not.i, label %.lr.ph29.i, label %.lr.ph.i, !llvm.loop !22

.lr.ph29.i:                                       ; preds = %.lr.ph.i, %.lr.ph29.i
  %indvars.iv31.i = phi i64 [ %indvars.iv.next32.i, %.lr.ph29.i ], [ 0, %.lr.ph.i ]
  %34 = getelementptr inbounds nuw ptr, ptr %23, i64 %indvars.iv31.i
  %35 = load ptr, ptr %34, align 8, !tbaa !21
  %36 = trunc nuw nsw i64 %indvars.iv31.i to i32
  tail call void @bfs(i32 noundef %36, ptr noundef %0, i32 noundef %1, ptr noundef %35) #20
  %indvars.iv.next32.i = add nuw nsw i64 %indvars.iv31.i, 1
  %exitcond35.not.i = icmp eq i64 %indvars.iv.next32.i, %30
  br i1 %exitcond35.not.i, label %compute_apsp_simple.exit, label %.lr.ph29.i, !llvm.loop !23

compute_apsp_simple.exit:                         ; preds = %.lr.ph29.i, %.preheader.thread.i, %5
  %.0 = phi ptr [ %6, %5 ], [ %29, %.preheader.thread.i ], [ %23, %.lr.ph29.i ]
  ret ptr %.0
}